; ModuleID = '61/528.c'
source_filename = "61/528.c"
target datalayout = "e-m:e-p270:32:32-p271:32:32-p272:64:64-i64:64-f80:128-n8:16:32:64-S128"
target triple = "x86_64-pc-linux-gnu"

@.str = private unnamed_addr constant [3 x i8] c"%d\00", align 1
@.str.1 = private unnamed_addr constant [4 x i8] c"%d\0A\00", align 1

; Function Attrs: noinline nounwind uwtable
define dso_local i32 @main() #0 {
  %1 = alloca i32, align 4
  %2 = alloca i32, align 4
  %3 = alloca i32, align 4
  %4 = alloca [100 x i32], align 16
  %5 = alloca [25 x i64], align 16
  store i32 0, i32* %1, align 4
  %6 = bitcast [100 x i32]* %4 to i8*
  call void @llvm.memset.p0i8.i64(i8* align 16 %6, i8 0, i64 400, i1 false)
  %7 = bitcast [25 x i64]* %5 to i8*
  call void @llvm.memset.p0i8.i64(i8* align 16 %7, i8 0, i64 200, i1 false)
  %8 = call i32 (i8*, ...) @__isoc99_scanf(i8* getelementptr inbounds ([3 x i8], [3 x i8]* @.str, i64 0, i64 0), i32* %2)
  store i32 0, i32* %3, align 4
  br label %9

9:                                                ; preds = %18, %0
  %10 = load i32, i32* %3, align 4
  %11 = load i32, i32* %2, align 4
  %12 = icmp slt i32 %10, %11
  br i1 %12, label %13, label %21

13:                                               ; preds = %9
  %14 = load i32, i32* %3, align 4
  %15 = sext i32 %14 to i64
  %16 = getelementptr inbounds [100 x i32], [100 x i32]* %4, i64 0, i64 %15
  %17 = call i32 (i8*, ...) @__isoc99_scanf(i8* getelementptr inbounds ([3 x i8], [3 x i8]* @.str, i64 0, i64 0), i32* %16)
  br label %18

18:                                               ; preds = %13
  %19 = load i32, i32* %3, align 4
  %20 = add nsw i32 %19, 1
  store i32 %20, i32* %3, align 4
  br label %9

21:                                               ; preds = %9
  %22 = getelementptr inbounds [25 x i64], [25 x i64]* %5, i64 0, i64 0
  store i64 1, i64* %22, align 16
  %23 = getelementptr inbounds [25 x i64], [25 x i64]* %5, i64 0, i64 1
  store i64 1, i64* %23, align 8
  store i32 2, i32* %3, align 4
  br label %24

24:                                               ; preds = %42, %21
  %25 = load i32, i32* %3, align 4
  %26 = icmp slt i32 %25, 20
  br i1 %26, label %27, label %45

27:                                               ; preds = %24
  %28 = load i32, i32* %3, align 4
  %29 = sub nsw i32 %28, 1
  %30 = sext i32 %29 to i64
  %31 = getelementptr inbounds [25 x i64], [25 x i64]* %5, i64 0, i64 %30
  %32 = load i64, i64* %31, align 8
  %33 = load i32, i32* %3, align 4
  %34 = sub nsw i32 %33, 2
  %35 = sext i32 %34 to i64
  %36 = getelementptr inbounds [25 x i64], [25 x i64]* %5, i64 0, i64 %35
  %37 = load i64, i64* %36, align 8
  %38 = add i64 %32, %37
  %39 = load i32, i32* %3, align 4
  %40 = sext i32 %39 to i64
  %41 = getelementptr inbounds [25 x i64], [25 x i64]* %5, i64 0, i64 %40
  store i64 %38, i64* %41, align 8
  br label %42

42:                                               ; preds = %27
  %43 = load i32, i32* %3, align 4
  %44 = add nsw i32 %43, 1
  store i32 %44, i32* %3, align 4
  br label %24

45:                                               ; preds = %24
  store i32 0, i32* %3, align 4
  br label %46

46:                                               ; preds = %60, %45
  %47 = load i32, i32* %3, align 4
  %48 = load i32, i32* %2, align 4
  %49 = icmp slt i32 %47, %48
  br i1 %49, label %50, label %63

50:                                               ; preds = %46
  %51 = load i32, i32* %3, align 4
  %52 = sext i32 %51 to i64
  %53 = getelementptr inbounds [100 x i32], [100 x i32]* %4, i64 0, i64 %52
  %54 = load i32, i32* %53, align 4
  %55 = sub nsw i32 %54, 1
  %56 = sext i32 %55 to i64
  %57 = getelementptr inbounds [25 x i64], [25 x i64]* %5, i64 0, i64 %56
  %58 = load i64, i64* %57, align 8
  %59 = call i32 (i8*, ...) @printf(i8* getelementptr inbounds ([4 x i8], [4 x i8]* @.str.1, i64 0, i64 0), i64 %58)
  br label %60

60:                                               ; preds = %50
  %61 = load i32, i32* %3, align 4
  %62 = add nsw i32 %61, 1
  store i32 %62, i32* %3, align 4
  br label %46

63:                                               ; preds = %46
  ret i32 0
}

; Function Attrs: argmemonly nounwind willreturn
declare void @llvm.memset.p0i8.i64(i8* nocapture writeonly, i8, i64, i1 immarg) #1

declare dso_local i32 @__isoc99_scanf(i8*, ...) #2

declare dso_local i32 @printf(i8*, ...) #2


!llvm.module.flags = !{!0}
!llvm.ident = !{!1}

!0 = !{i32 1, !"wchar_size", i32 4}
!1 = !{!"clang version 10.0.0-4ubuntu1 "}
